; Function Attrs: mustprogress uwtable
define dso_local noundef range(i32 0, 2) i32 @_Z16lua_getmetatableP9lua_Statei(ptr noundef %0, i32 noundef %1) local_unnamed_addr #3 {
  %3 = getelementptr inbounds nuw i8, ptr %0, i64 1
  %4 = load i8, ptr %3, align 1, !tbaa !21
  %5 = and i8 %4, 4
  %.not = icmp eq i8 %5, 0
  br i1 %.not, label %8, label %6

6:                                                ; preds = %2
  %7 = getelementptr inbounds nuw i8, ptr %0, i64 104
  tail call void @_Z16luaC_barrierbackP9lua_StateP8GCObjectPS2_(ptr noundef nonnull %0, ptr noundef nonnull %0, ptr noundef nonnull %7)
  br label %8

8:                                                ; preds = %6, %2
  %9 = icmp sgt i32 %1, 0
  br i1 %9, label %10, label %18

10:                                               ; preds = %8
  %11 = getelementptr inbounds nuw i8, ptr %0, i64 16
  %12 = load ptr, ptr %11, align 8, !tbaa !4
  %13 = zext nneg i32 %1 to i64
  %14 = getelementptr %struct.lua_TValue, ptr %12, i64 %13
  %15 = getelementptr i8, ptr %14, i64 -16
  %16 = getelementptr inbounds nuw i8, ptr %0, i64 8
  %17 = load ptr, ptr %16, align 8, !tbaa !19
  %.not.i = icmp ult ptr %15, %17
  %.luaO_nilobject_.i = select i1 %.not.i, ptr %15, ptr @luaO_nilobject_
  br label %_ZL10index2addrP9lua_Statei.exit

18:                                               ; preds = %8
  %19 = icmp sgt i32 %1, -10000
  br i1 %19, label %20, label %25

20:                                               ; preds = %18
  %21 = getelementptr inbounds nuw i8, ptr %0, i64 8
  %22 = load ptr, ptr %21, align 8, !tbaa !19
  %23 = sext i32 %1 to i64
  %24 = getelementptr inbounds %struct.lua_TValue, ptr %22, i64 %23
  br label %_ZL10index2addrP9lua_Statei.exit

25:                                               ; preds = %18
  %26 = tail call fastcc noundef ptr @_ZL11pseudo2addrP9lua_Statei(ptr noundef nonnull %0, i32 noundef %1)
  br label %_ZL10index2addrP9lua_Statei.exit

_ZL10index2addrP9lua_Statei.exit:                 ; preds = %10, %20, %25
  %.1.i = phi ptr [ %.luaO_nilobject_.i, %10 ], [ %24, %20 ], [ %26, %25 ]
  %27 = getelementptr inbounds nuw i8, ptr %.1.i, i64 12
  %28 = load i32, ptr %27, align 4, !tbaa !47
  switch i32 %28, label %35 [
    i32 6, label %29
    i32 8, label %32
  ]

29:                                               ; preds = %_ZL10index2addrP9lua_Statei.exit
  %30 = load ptr, ptr %.1.i, align 8, !tbaa !21
  %31 = getelementptr inbounds nuw i8, ptr %30, i64 16
  br label %41

32:                                               ; preds = %_ZL10index2addrP9lua_Statei.exit
  %33 = load ptr, ptr %.1.i, align 8, !tbaa !21
  %34 = getelementptr inbounds nuw i8, ptr %33, i64 8
  br label %41

35:                                               ; preds = %_ZL10index2addrP9lua_Statei.exit
  %36 = getelementptr inbounds nuw i8, ptr %0, i64 24
  %37 = load ptr, ptr %36, align 8, !tbaa !30
  %38 = getelementptr inbounds nuw i8, ptr %37, i64 2856
  %39 = sext i32 %28 to i64
  %40 = getelementptr inbounds [11 x ptr], ptr %38, i64 0, i64 %39
  br label %41

41:                                               ; preds = %35, %32, %29
  %.0.in = phi ptr [ %40, %35 ], [ %34, %32 ], [ %31, %29 ]
  %.0 = load ptr, ptr %.0.in, align 8, !tbaa !74
  %42 = icmp ne ptr %.0, null
  br i1 %42, label %43, label %49

43:                                               ; preds = %41
  %44 = getelementptr inbounds nuw i8, ptr %0, i64 8
  %45 = load ptr, ptr %44, align 8, !tbaa !19
  store ptr %.0, ptr %45, align 8, !tbaa !21
  %46 = getelementptr inbounds nuw i8, ptr %45, i64 12
  store i32 6, ptr %46, align 4, !tbaa !47
  %47 = load ptr, ptr %44, align 8, !tbaa !19
  %48 = getelementptr inbounds nuw i8, ptr %47, i64 16
  store ptr %48, ptr %44, align 8, !tbaa !19
  br label %49

49:                                               ; preds = %43, %41
  %50 = zext i1 %42 to i32
  ret i32 %50
}